target datalayout = "e-m:e-p270:32:32-p271:32:32-p272:64:64-i64:64-i128:128-f80:128-n8:16:32:64-S128"
target triple = "x86_64-pc-linux-gnu"

%struct._zend_executor_globals = type { %struct._zval_struct, %struct._zval_struct, [32 x ptr], ptr, ptr, %struct._zend_array, %struct._zend_array, ptr, i32, i8, %struct._zval_struct, i32, ptr, ptr, ptr, ptr, ptr, ptr, i64, ptr, ptr, i32, ptr, i32, i64, i32, i32, i32, i8, i8, %struct.zend_atomic_bool_s, %struct.zend_atomic_bool_s, ptr, i64, ptr, ptr, %struct._zend_array, %struct._zend_array, i32, i8, %struct._zval_struct, %struct._zval_struct, %struct._zend_stack, %struct._zend_stack, %struct._zend_stack, ptr, i32, i32, i64, ptr, ptr, ptr, %struct._zend_objects_store, %struct._zend_lazy_objects_store, ptr, ptr, ptr, [3 x %struct._zend_op], ptr, i8, i8, i64, i32, i32, ptr, [16 x %struct._HashTableIterator], ptr, %union._zend_function, %struct._zend_op, %struct._zend_array, i64, %struct.zend_get_gc_buffer, ptr, ptr, ptr, i64, i8, i32, ptr, ptr, i64, %struct._zend_call_stack, i64, i64, %struct._zend_strtod_state, [6 x ptr] }
%struct.zend_atomic_bool_s = type { i8 }
%struct._zval_struct = type { %union._zend_value, %union.anon, %union.anon.2 }
%union._zend_value = type { i64 }
%union.anon = type { i32 }
%union.anon.2 = type { i32 }
%struct._zend_stack = type { i32, i32, i32, ptr }
%struct._zend_objects_store = type { ptr, i32, i32, i32 }
%struct._zend_lazy_objects_store = type { %struct._zend_array }
%struct._HashTableIterator = type { ptr, i32, i32 }
%union._zend_function = type { %struct._zend_op_array }
%struct._zend_op_array = type { i8, [3 x i8], i32, ptr, ptr, ptr, i32, i32, ptr, ptr, ptr, ptr, i32, ptr, i32, i32, i32, ptr, ptr, ptr, ptr, ptr, i32, i32, ptr, ptr, ptr, i32, i32, i32, i32, ptr, ptr, [6 x ptr] }
%struct._zend_op = type { ptr, %union._znode_op, %union._znode_op, %union._znode_op, i32, i32, i8, i8, i8, i8 }
%union._znode_op = type { i32 }
%struct._zend_array = type { %struct._zend_refcounted_h, %union.anon.4, i32, %union.anon.6, i32, i32, i32, i32, i64, ptr }
%struct._zend_refcounted_h = type { i32, %union.anon.3 }
%union.anon.3 = type { i32 }
%union.anon.4 = type { i32 }
%union.anon.6 = type { ptr }
%struct.zend_get_gc_buffer = type { ptr, ptr, ptr }
%struct._zend_call_stack = type { ptr, i64 }
%struct._zend_strtod_state = type { [8 x ptr], ptr, ptr }
%struct._zend_execute_data = type { ptr, ptr, ptr, ptr, %struct._zval_struct, ptr, ptr, ptr, ptr }
%struct._zend_object = type { %struct._zend_refcounted_h, i32, i32, ptr, ptr, ptr, [1 x %struct._zval_struct] }
%struct._php_sqlite3_stmt_object = type { ptr, ptr, i8, ptr, %struct._zend_object }
%struct.anon.0 = type { i8, i8, %union.anon.1 }
%union.anon.1 = type { i16 }
%struct._php_sqlite3_result_object = type { ptr, ptr, i8, i32, ptr, %struct._zend_object }

@executor_globals = external global %struct._zend_executor_globals, align 8
@.str.42 = private unnamed_addr constant [81 x i8] c"The SQLite3Result object has not been correctly initialised or is already closed\00", align 1

; Function Attrs: alwaysinline nounwind uwtable
define internal zeroext i8 @zval_get_type(ptr noundef %0) #8 {
  %2 = alloca ptr, align 8
  store ptr %0, ptr %2, align 8, !tbaa !9
  %3 = load ptr, ptr %2, align 8, !tbaa !9
  %4 = getelementptr inbounds nuw %struct._zval_struct, ptr %3, i32 0, i32 1
  %5 = getelementptr inbounds nuw %struct.anon.0, ptr %4, i32 0, i32 0
  %6 = load i8, ptr %5, align 8, !tbaa !13
  ret i8 %6
}

; Function Attrs: alwaysinline nounwind uwtable
define internal zeroext i1 @zend_parse_arg_long_ex(ptr noundef %0, ptr noundef %1, ptr noundef %2, i1 noundef zeroext %3, i32 noundef %4, i1 noundef zeroext %5) #8 {
  %7 = alloca i1, align 1
  %8 = alloca ptr, align 8
  %9 = alloca ptr, align 8
  %10 = alloca ptr, align 8
  %11 = alloca i8, align 1
  %12 = alloca i32, align 4
  %13 = alloca i8, align 1
  store ptr %0, ptr %8, align 8, !tbaa !9
  store ptr %1, ptr %9, align 8, !tbaa !170
  store ptr %2, ptr %10, align 8, !tbaa !159
  %14 = zext i1 %3 to i8
  store i8 %14, ptr %11, align 1, !tbaa !79
  store i32 %4, ptr %12, align 4, !tbaa !63
  %15 = zext i1 %5 to i8
  store i8 %15, ptr %13, align 1, !tbaa !79
  %16 = load i8, ptr %11, align 1, !tbaa !79, !range !59, !noundef !60
  %17 = trunc i8 %16 to i1
  br i1 %17, label %18, label %20

18:                                               ; preds = %6
  %19 = load ptr, ptr %10, align 8, !tbaa !159
  store i8 0, ptr %19, align 1, !tbaa !79
  br label %20

20:                                               ; preds = %18, %6
  %21 = load ptr, ptr %8, align 8, !tbaa !9
  %22 = call zeroext i8 @zval_get_type(ptr noundef %21)
  %23 = zext i8 %22 to i32
  %24 = icmp eq i32 %23, 4
  %25 = xor i1 %24, true
  %26 = xor i1 %25, true
  %27 = zext i1 %26 to i32
  %28 = sext i32 %27 to i64
  %29 = call i64 @llvm.expect.i64(i64 %28, i64 1)
  %30 = icmp ne i64 %29, 0
  br i1 %30, label %31, label %36

31:                                               ; preds = %20
  %32 = load ptr, ptr %8, align 8, !tbaa !9
  %33 = getelementptr inbounds nuw %struct._zval_struct, ptr %32, i32 0, i32 0
  %34 = load i64, ptr %33, align 8, !tbaa !13
  %35 = load ptr, ptr %9, align 8, !tbaa !170
  store i64 %34, ptr %35, align 8, !tbaa !11
  br label %61

36:                                               ; preds = %20
  %37 = load i8, ptr %11, align 1, !tbaa !79, !range !59, !noundef !60
  %38 = trunc i8 %37 to i1
  br i1 %38, label %39, label %47

39:                                               ; preds = %36
  %40 = load ptr, ptr %8, align 8, !tbaa !9
  %41 = call zeroext i8 @zval_get_type(ptr noundef %40)
  %42 = zext i8 %41 to i32
  %43 = icmp eq i32 %42, 1
  br i1 %43, label %44, label %47

44:                                               ; preds = %39
  %45 = load ptr, ptr %10, align 8, !tbaa !159
  store i8 1, ptr %45, align 1, !tbaa !79
  %46 = load ptr, ptr %9, align 8, !tbaa !170
  store i64 0, ptr %46, align 8, !tbaa !11
  br label %60

47:                                               ; preds = %39, %36
  %48 = load i8, ptr %13, align 1, !tbaa !79, !range !59, !noundef !60
  %49 = trunc i8 %48 to i1
  br i1 %49, label %50, label %55

50:                                               ; preds = %47
  %51 = load ptr, ptr %8, align 8, !tbaa !9
  %52 = load ptr, ptr %9, align 8, !tbaa !170
  %53 = load i32, ptr %12, align 4, !tbaa !63
  %54 = call zeroext i1 @zend_flf_parse_arg_long_slow(ptr noundef %51, ptr noundef %52, i32 noundef %53)
  store i1 %54, ptr %7, align 1
  br label %62

55:                                               ; preds = %47
  %56 = load ptr, ptr %8, align 8, !tbaa !9
  %57 = load ptr, ptr %9, align 8, !tbaa !170
  %58 = load i32, ptr %12, align 4, !tbaa !63
  %59 = call zeroext i1 @zend_parse_arg_long_slow(ptr noundef %56, ptr noundef %57, i32 noundef %58)
  store i1 %59, ptr %7, align 1
  br label %62

60:                                               ; preds = %44
  br label %61

61:                                               ; preds = %60, %31
  store i1 true, ptr %7, align 1
  br label %62

62:                                               ; preds = %61, %55, %50
  %63 = load i1, ptr %7, align 1
  ret i1 %63
}

; Function Attrs: alwaysinline nounwind uwtable
define internal zeroext i1 @zend_parse_arg_long(ptr noundef %0, ptr noundef %1, ptr noundef %2, i1 noundef zeroext %3, i32 noundef %4) #8 {
  %6 = alloca ptr, align 8
  %7 = alloca ptr, align 8
  %8 = alloca ptr, align 8
  %9 = alloca i8, align 1
  %10 = alloca i32, align 4
  store ptr %0, ptr %6, align 8, !tbaa !9
  store ptr %1, ptr %7, align 8, !tbaa !170
  store ptr %2, ptr %8, align 8, !tbaa !159
  %11 = zext i1 %3 to i8
  store i8 %11, ptr %9, align 1, !tbaa !79
  store i32 %4, ptr %10, align 4, !tbaa !63
  %12 = load ptr, ptr %6, align 8, !tbaa !9
  %13 = load ptr, ptr %7, align 8, !tbaa !170
  %14 = load ptr, ptr %8, align 8, !tbaa !159
  %15 = load i8, ptr %9, align 1, !tbaa !79, !range !59, !noundef !60
  %16 = trunc i8 %15 to i1
  %17 = load i32, ptr %10, align 4, !tbaa !63
  %18 = call zeroext i1 @zend_parse_arg_long_ex(ptr noundef %12, ptr noundef %13, ptr noundef %14, i1 noundef zeroext %16, i32 noundef %17, i1 noundef zeroext false)
  ret i1 %18
}

; Function Attrs: inlinehint nounwind uwtable
define internal ptr @php_sqlite3_result_from_obj(ptr noundef %0) #2 {
  %2 = alloca ptr, align 8
  store ptr %0, ptr %2, align 8, !tbaa !67
  %3 = load ptr, ptr %2, align 8, !tbaa !67
  %4 = getelementptr inbounds i8, ptr %3, i64 -32
  ret ptr %4
}

; Function Attrs: nounwind uwtable
define hidden void @zim_SQLite3Result_columnType(ptr noundef %0, ptr noundef %1) #0 {
  %3 = alloca ptr, align 8
  %4 = alloca ptr, align 8
  %5 = alloca ptr, align 8
  %6 = alloca ptr, align 8
  %7 = alloca i64, align 8
  %8 = alloca i32, align 4
  %9 = alloca i32, align 4
  %10 = alloca i32, align 4
  %11 = alloca i32, align 4
  %12 = alloca i32, align 4
  %13 = alloca ptr, align 8
  %14 = alloca ptr, align 8
  %15 = alloca i32, align 4
  %16 = alloca ptr, align 8
  %17 = alloca i8, align 1
  %18 = alloca i8, align 1
  %19 = alloca i32, align 4
  %20 = alloca i32, align 4
  %21 = alloca ptr, align 8
  store ptr %0, ptr %3, align 8, !tbaa !4
  store ptr %1, ptr %4, align 8, !tbaa !9
  call void @llvm.lifetime.start.p0(i64 8, ptr %5) #15
  call void @llvm.lifetime.start.p0(i64 8, ptr %6) #15
  %22 = load ptr, ptr %3, align 8, !tbaa !4
  %23 = getelementptr inbounds nuw %struct._zend_execute_data, ptr %22, i32 0, i32 4
  store ptr %23, ptr %6, align 8, !tbaa !9
  call void @llvm.lifetime.start.p0(i64 8, ptr %7) #15
  store i64 0, ptr %7, align 8, !tbaa !11
  %24 = load ptr, ptr %6, align 8, !tbaa !9
  %25 = getelementptr inbounds nuw %struct._zval_struct, ptr %24, i32 0, i32 0
  %26 = load ptr, ptr %25, align 8, !tbaa !13
  %27 = call ptr @php_sqlite3_result_from_obj(ptr noundef %26)
  store ptr %27, ptr %5, align 8, !tbaa !94
  br label %28

28:                                               ; preds = %2
  call void @llvm.lifetime.start.p0(i64 4, ptr %8) #15
  store i32 0, ptr %8, align 4, !tbaa !63
  call void @llvm.lifetime.start.p0(i64 4, ptr %9) #15
  store i32 1, ptr %9, align 4, !tbaa !63
  call void @llvm.lifetime.start.p0(i64 4, ptr %10) #15
  store i32 1, ptr %10, align 4, !tbaa !63
  call void @llvm.lifetime.start.p0(i64 4, ptr %11) #15
  %29 = load ptr, ptr %3, align 8, !tbaa !4
  %30 = getelementptr inbounds nuw %struct._zend_execute_data, ptr %29, i32 0, i32 4
  %31 = getelementptr inbounds nuw %struct._zval_struct, ptr %30, i32 0, i32 2
  %32 = load i32, ptr %31, align 4, !tbaa !13
  store i32 %32, ptr %11, align 4, !tbaa !63
  call void @llvm.lifetime.start.p0(i64 4, ptr %12) #15
  store i32 0, ptr %12, align 4, !tbaa !63
  call void @llvm.lifetime.start.p0(i64 8, ptr %13) #15
  call void @llvm.lifetime.start.p0(i64 8, ptr %14) #15
  store ptr null, ptr %14, align 8, !tbaa !9
  call void @llvm.lifetime.start.p0(i64 4, ptr %15) #15
  store i32 0, ptr %15, align 4, !tbaa !63
  call void @llvm.lifetime.start.p0(i64 8, ptr %16) #15
  store ptr null, ptr %16, align 8, !tbaa !62
  call void @llvm.lifetime.start.p0(i64 1, ptr %17) #15
  store i8 0, ptr %17, align 1, !tbaa !79
  call void @llvm.lifetime.start.p0(i64 1, ptr %18) #15
  store i8 0, ptr %18, align 1, !tbaa !79
  call void @llvm.lifetime.start.p0(i64 4, ptr %19) #15
  store i32 0, ptr %19, align 4, !tbaa !63
  br label %33

33:                                               ; preds = %28
  %34 = load i32, ptr %11, align 4, !tbaa !63
  %35 = load i32, ptr %9, align 4, !tbaa !63
  %36 = icmp ult i32 %34, %35
  %37 = xor i1 %36, true
  %38 = xor i1 %37, true
  %39 = zext i1 %38 to i32
  %40 = sext i32 %39 to i64
  %41 = call i64 @llvm.expect.i64(i64 %40, i64 0)
  %42 = icmp ne i64 %41, 0
  br i1 %42, label %53, label %43

43:                                               ; preds = %33
  %44 = load i32, ptr %11, align 4, !tbaa !63
  %45 = load i32, ptr %10, align 4, !tbaa !63
  %46 = icmp ugt i32 %44, %45
  %47 = xor i1 %46, true
  %48 = xor i1 %47, true
  %49 = zext i1 %48 to i32
  %50 = sext i32 %49 to i64
  %51 = call i64 @llvm.expect.i64(i64 %50, i64 0)
  %52 = icmp ne i64 %51, 0
  br i1 %52, label %53, label %56

53:                                               ; preds = %43, %33
  %54 = load i32, ptr %9, align 4, !tbaa !63
  %55 = load i32, ptr %10, align 4, !tbaa !63
  call void @zend_wrong_parameters_count_error(i32 noundef %54, i32 noundef %55)
  store i32 1, ptr %19, align 4, !tbaa !63
  br label %120

56:                                               ; preds = %43
  %57 = load ptr, ptr %3, align 8, !tbaa !4
  %58 = getelementptr inbounds %struct._zval_struct, ptr %57, i64 4
  store ptr %58, ptr %13, align 8, !tbaa !9
  %59 = load i32, ptr %12, align 4, !tbaa !63
  %60 = add i32 %59, 1
  store i32 %60, ptr %12, align 4, !tbaa !63
  %61 = load i32, ptr %12, align 4, !tbaa !63
  %62 = load i32, ptr %9, align 4, !tbaa !63
  %63 = icmp ule i32 %61, %62
  br i1 %63, label %69, label %64

64:                                               ; preds = %56
  %65 = load i8, ptr %18, align 1, !tbaa !79, !range !59, !noundef !60
  %66 = trunc i8 %65 to i1
  %67 = zext i1 %66 to i32
  %68 = icmp eq i32 %67, 1
  br label %69

69:                                               ; preds = %64, %56
  %70 = phi i1 [ true, %56 ], [ %68, %64 ]
  call void @llvm.assume(i1 %70)
  %71 = load i32, ptr %12, align 4, !tbaa !63
  %72 = load i32, ptr %9, align 4, !tbaa !63
  %73 = icmp ugt i32 %71, %72
  br i1 %73, label %79, label %74

74:                                               ; preds = %69
  %75 = load i8, ptr %18, align 1, !tbaa !79, !range !59, !noundef !60
  %76 = trunc i8 %75 to i1
  %77 = zext i1 %76 to i32
  %78 = icmp eq i32 %77, 0
  br label %79

79:                                               ; preds = %74, %69
  %80 = phi i1 [ true, %69 ], [ %78, %74 ]
  call void @llvm.assume(i1 %80)
  %81 = load i8, ptr %18, align 1, !tbaa !79, !range !59, !noundef !60
  %82 = trunc i8 %81 to i1
  br i1 %82, label %83, label %95

83:                                               ; preds = %79
  %84 = load i32, ptr %12, align 4, !tbaa !63
  %85 = load i32, ptr %11, align 4, !tbaa !63
  %86 = icmp ugt i32 %84, %85
  %87 = xor i1 %86, true
  %88 = xor i1 %87, true
  %89 = zext i1 %88 to i32
  %90 = sext i32 %89 to i64
  %91 = call i64 @llvm.expect.i64(i64 %90, i64 0)
  %92 = icmp ne i64 %91, 0
  br i1 %92, label %93, label %94

93:                                               ; preds = %83
  br label %120

94:                                               ; preds = %83
  br label %95

95:                                               ; preds = %94, %79
  %96 = load ptr, ptr %13, align 8, !tbaa !9
  %97 = getelementptr inbounds nuw %struct._zval_struct, ptr %96, i32 1
  store ptr %97, ptr %13, align 8, !tbaa !9
  %98 = load ptr, ptr %13, align 8, !tbaa !9
  store ptr %98, ptr %14, align 8, !tbaa !9
  %99 = load ptr, ptr %14, align 8, !tbaa !9
  %100 = load i32, ptr %12, align 4, !tbaa !63
  %101 = call zeroext i1 @zend_parse_arg_long(ptr noundef %99, ptr noundef %7, ptr noundef %17, i1 noundef zeroext false, i32 noundef %100)
  %102 = xor i1 %101, true
  %103 = xor i1 %102, true
  %104 = xor i1 %103, true
  %105 = zext i1 %104 to i32
  %106 = sext i32 %105 to i64
  %107 = call i64 @llvm.expect.i64(i64 %106, i64 0)
  %108 = icmp ne i64 %107, 0
  br i1 %108, label %109, label %110

109:                                              ; preds = %95
  store i32 0, ptr %15, align 4, !tbaa !63
  store i32 9, ptr %19, align 4, !tbaa !63
  br label %120

110:                                              ; preds = %95
  %111 = load i32, ptr %12, align 4, !tbaa !63
  %112 = load i32, ptr %10, align 4, !tbaa !63
  %113 = icmp eq i32 %111, %112
  br i1 %113, label %117, label %114

114:                                              ; preds = %110
  %115 = load i32, ptr %10, align 4, !tbaa !63
  %116 = icmp eq i32 %115, -1
  br label %117

117:                                              ; preds = %114, %110
  %118 = phi i1 [ true, %110 ], [ %116, %114 ]
  call void @llvm.assume(i1 %118)
  br label %119

119:                                              ; preds = %117
  br label %120

120:                                              ; preds = %119, %109, %93, %53
  %121 = load i32, ptr %19, align 4, !tbaa !63
  %122 = icmp ne i32 %121, 0
  %123 = xor i1 %122, true
  %124 = xor i1 %123, true
  %125 = zext i1 %124 to i32
  %126 = sext i32 %125 to i64
  %127 = call i64 @llvm.expect.i64(i64 %126, i64 0)
  %128 = icmp ne i64 %127, 0
  br i1 %128, label %129, label %135

129:                                              ; preds = %120
  %130 = load i32, ptr %19, align 4, !tbaa !63
  %131 = load i32, ptr %12, align 4, !tbaa !63
  %132 = load ptr, ptr %16, align 8, !tbaa !62
  %133 = load i32, ptr %15, align 4, !tbaa !63
  %134 = load ptr, ptr %14, align 8, !tbaa !9
  call void @zend_wrong_parameter_error(i32 noundef %130, i32 noundef %131, ptr noundef %132, i32 noundef %133, ptr noundef %134)
  store i32 1, ptr %20, align 4
  br label %136

135:                                              ; preds = %120
  store i32 0, ptr %20, align 4
  br label %136

136:                                              ; preds = %135, %129
  call void @llvm.lifetime.end.p0(i64 4, ptr %19) #15
  call void @llvm.lifetime.end.p0(i64 1, ptr %18) #15
  call void @llvm.lifetime.end.p0(i64 1, ptr %17) #15
  call void @llvm.lifetime.end.p0(i64 8, ptr %16) #15
  call void @llvm.lifetime.end.p0(i64 4, ptr %15) #15
  call void @llvm.lifetime.end.p0(i64 8, ptr %14) #15
  call void @llvm.lifetime.end.p0(i64 8, ptr %13) #15
  call void @llvm.lifetime.end.p0(i64 4, ptr %12) #15
  call void @llvm.lifetime.end.p0(i64 4, ptr %11) #15
  call void @llvm.lifetime.end.p0(i64 4, ptr %10) #15
  call void @llvm.lifetime.end.p0(i64 4, ptr %9) #15
  call void @llvm.lifetime.end.p0(i64 4, ptr %8) #15
  %137 = load i32, ptr %20, align 4
  switch i32 %137, label %196 [
    i32 0, label %138
  ]

138:                                              ; preds = %136
  br label %139

139:                                              ; preds = %138
  br label %140

140:                                              ; preds = %139
  %141 = load ptr, ptr %5, align 8, !tbaa !94
  %142 = getelementptr inbounds nuw %struct._php_sqlite3_result_object, ptr %141, i32 0, i32 0
  %143 = load ptr, ptr %142, align 8, !tbaa !96
  %144 = icmp ne ptr %143, null
  br i1 %144, label %145, label %152

145:                                              ; preds = %140
  %146 = load ptr, ptr %5, align 8, !tbaa !94
  %147 = getelementptr inbounds nuw %struct._php_sqlite3_result_object, ptr %146, i32 0, i32 1
  %148 = load ptr, ptr %147, align 8, !tbaa !99
  %149 = getelementptr inbounds nuw %struct._php_sqlite3_stmt_object, ptr %148, i32 0, i32 2
  %150 = load i8, ptr %149, align 8, !tbaa !88, !range !59, !noundef !60
  %151 = trunc i8 %150 to i1
  br i1 %151, label %158, label %152

152:                                              ; preds = %145, %140
  call void (ptr, ptr, ...) @zend_throw_error(ptr noundef null, ptr noundef @.str.42)
  br label %153

153:                                              ; preds = %152
  %154 = load ptr, ptr getelementptr inbounds nuw (%struct._zend_executor_globals, ptr @executor_globals, i32 0, i32 54), align 8, !tbaa !16
  %155 = icmp ne ptr %154, null
  call void @llvm.assume(i1 %155)
  store i32 1, ptr %20, align 4
  br label %196

156:                                              ; No predecessors!
  br label %157

157:                                              ; preds = %156
  br label %158

158:                                              ; preds = %157, %145
  %159 = load ptr, ptr %5, align 8, !tbaa !94
  %160 = getelementptr inbounds nuw %struct._php_sqlite3_result_object, ptr %159, i32 0, i32 1
  %161 = load ptr, ptr %160, align 8, !tbaa !99
  %162 = getelementptr inbounds nuw %struct._php_sqlite3_stmt_object, ptr %161, i32 0, i32 0
  %163 = load ptr, ptr %162, align 8, !tbaa !102
  %164 = call i32 @sqlite3_data_count(ptr noundef %163)
  %165 = icmp ne i32 %164, 0
  br i1 %165, label %175, label %166

166:                                              ; preds = %158
  br label %167

167:                                              ; preds = %166
  br label %168

168:                                              ; preds = %167
  %169 = load ptr, ptr %4, align 8, !tbaa !9
  %170 = getelementptr inbounds nuw %struct._zval_struct, ptr %169, i32 0, i32 1
  store i32 2, ptr %170, align 8, !tbaa !13
  br label %171

171:                                              ; preds = %168
  br label %172

172:                                              ; preds = %171
  store i32 1, ptr %20, align 4
  br label %196

173:                                              ; No predecessors!
  br label %174

174:                                              ; preds = %173
  br label %175

175:                                              ; preds = %174, %158
  br label %176

176:                                              ; preds = %175
  br label %177

177:                                              ; preds = %176
  call void @llvm.lifetime.start.p0(i64 8, ptr %21) #15
  %178 = load ptr, ptr %4, align 8, !tbaa !9
  store ptr %178, ptr %21, align 8, !tbaa !9
  %179 = load ptr, ptr %5, align 8, !tbaa !94
  %180 = getelementptr inbounds nuw %struct._php_sqlite3_result_object, ptr %179, i32 0, i32 1
  %181 = load ptr, ptr %180, align 8, !tbaa !99
  %182 = getelementptr inbounds nuw %struct._php_sqlite3_stmt_object, ptr %181, i32 0, i32 0
  %183 = load ptr, ptr %182, align 8, !tbaa !102
  %184 = load i64, ptr %7, align 8, !tbaa !11
  %185 = trunc i64 %184 to i32
  %186 = call i32 @sqlite3_column_type(ptr noundef %183, i32 noundef %185)
  %187 = sext i32 %186 to i64
  %188 = load ptr, ptr %21, align 8, !tbaa !9
  %189 = getelementptr inbounds nuw %struct._zval_struct, ptr %188, i32 0, i32 0
  store i64 %187, ptr %189, align 8, !tbaa !13
  %190 = load ptr, ptr %21, align 8, !tbaa !9
  %191 = getelementptr inbounds nuw %struct._zval_struct, ptr %190, i32 0, i32 1
  store i32 4, ptr %191, align 8, !tbaa !13
  call void @llvm.lifetime.end.p0(i64 8, ptr %21) #15
  br label %192

192:                                              ; preds = %177
  br label %193

193:                                              ; preds = %192
  store i32 1, ptr %20, align 4
  br label %196

194:                                              ; No predecessors!
  br label %195

195:                                              ; preds = %194
  store i32 0, ptr %20, align 4
  br label %196

196:                                              ; preds = %195, %193, %172, %153, %136
  call void @llvm.lifetime.end.p0(i64 8, ptr %7) #15
  call void @llvm.lifetime.end.p0(i64 8, ptr %6) #15
  call void @llvm.lifetime.end.p0(i64 8, ptr %5) #15
  %197 = load i32, ptr %20, align 4
  switch i32 %197, label %199 [
    i32 0, label %198
    i32 1, label %198
  ]

198:                                              ; preds = %196, %196
  ret void

199:                                              ; preds = %196
  unreachable
}