; Function Attrs: nounwind uwtable
define hidden void @zim_SQLite3Result_columnType(ptr noundef %0, ptr noundef writeonly captures(none) %1) #0 {
  %3 = alloca i64, align 8
  %4 = getelementptr inbounds nuw i8, ptr %0, i64 32
  call void @llvm.lifetime.start.p0(i64 8, ptr nonnull %3) #17
  store i64 0, ptr %3, align 8, !tbaa !4
  %5 = load ptr, ptr %4, align 8, !tbaa !8
  %6 = getelementptr inbounds i8, ptr %5, i64 -32
  %7 = getelementptr inbounds nuw i8, ptr %0, i64 44
  %8 = load i32, ptr %7, align 4, !tbaa !8
  %cond = icmp eq i32 %8, 1
  br i1 %cond, label %9, label %.thread58, !prof !135

.thread58:                                        ; preds = %2
  tail call void @zend_wrong_parameters_count_error(i32 noundef 1, i32 noundef 1) #17
  br label %16

9:                                                ; preds = %2
  %10 = getelementptr inbounds nuw i8, ptr %0, i64 80
  %11 = getelementptr inbounds nuw i8, ptr %0, i64 88
  %12 = load i8, ptr %11, align 8, !tbaa !8
  %13 = icmp eq i8 %12, 4
  br i1 %13, label %.thread, label %zend_parse_arg_long_ex.exit, !prof !75

.thread:                                          ; preds = %9
  %14 = load i64, ptr %10, align 8, !tbaa !8
  store i64 %14, ptr %3, align 8, !tbaa !4
  br label %.critedge

zend_parse_arg_long_ex.exit:                      ; preds = %9
  %15 = call zeroext i1 @zend_parse_arg_long_slow(ptr noundef nonnull %10, ptr noundef nonnull %3, i32 noundef 1) #17
  br i1 %15, label %.critedge, label %16, !prof !146

16:                                               ; preds = %zend_parse_arg_long_ex.exit, %.thread58
  %.065 = phi i32 [ 0, %.thread58 ], [ 1, %zend_parse_arg_long_ex.exit ]
  %.04264 = phi i32 [ 1, %.thread58 ], [ 9, %zend_parse_arg_long_ex.exit ]
  %.04363 = phi ptr [ null, %.thread58 ], [ %10, %zend_parse_arg_long_ex.exit ]
  call void @zend_wrong_parameter_error(i32 noundef %.04264, i32 noundef %.065, ptr noundef null, i32 noundef 0, ptr noundef %.04363) #17
  br label %40

.critedge:                                        ; preds = %zend_parse_arg_long_ex.exit, %.thread
  %17 = load ptr, ptr %6, align 8, !tbaa !94
  %.not47 = icmp eq ptr %17, null
  br i1 %.not47, label %24, label %18

18:                                               ; preds = %.critedge
  %19 = getelementptr inbounds i8, ptr %5, i64 -24
  %20 = load ptr, ptr %19, align 8, !tbaa !97
  %21 = getelementptr inbounds nuw i8, ptr %20, i64 16
  %22 = load i8, ptr %21, align 8, !tbaa !88, !range !55, !noundef !56
  %23 = trunc nuw i8 %22 to i1
  br i1 %23, label %27, label %24

24:                                               ; preds = %18, %.critedge
  call void (ptr, ptr, ...) @zend_throw_error(ptr noundef null, ptr noundef nonnull @.str.42) #17
  %25 = load ptr, ptr getelementptr inbounds nuw (i8, ptr @executor_globals, i64 960), align 8, !tbaa !9
  %26 = icmp ne ptr %25, null
  call void @llvm.assume(i1 %26)
  br label %40

27:                                               ; preds = %18
  %28 = load ptr, ptr %20, align 8, !tbaa !100
  %29 = call i32 @sqlite3_data_count(ptr noundef %28) #17
  %.not48 = icmp eq i32 %29, 0
  br i1 %.not48, label %30, label %32

30:                                               ; preds = %27
  %31 = getelementptr inbounds nuw i8, ptr %1, i64 8
  store i32 2, ptr %31, align 8, !tbaa !8
  br label %40

32:                                               ; preds = %27
  %33 = load ptr, ptr %19, align 8, !tbaa !97
  %34 = load ptr, ptr %33, align 8, !tbaa !100
  %35 = load i64, ptr %3, align 8, !tbaa !4
  %36 = trunc i64 %35 to i32
  %37 = call i32 @sqlite3_column_type(ptr noundef %34, i32 noundef %36) #17
  %38 = sext i32 %37 to i64
  store i64 %38, ptr %1, align 8, !tbaa !8
  %39 = getelementptr inbounds nuw i8, ptr %1, i64 8
  store i32 4, ptr %39, align 8, !tbaa !8
  br label %40

40:                                               ; preds = %16, %32, %30, %24
  call void @llvm.lifetime.end.p0(i64 8, ptr nonnull %3) #17
  ret void
}